; Function Attrs: nounwind uwtable
define internal void @_job_state_pack(ptr noundef readonly captures(none) %0, i16 zeroext %1, ptr noundef %2) #0 {
  %4 = getelementptr inbounds nuw i8, ptr %0, i64 16
  %5 = load i32, ptr %4, align 8
  tail call void @pack32(i32 noundef %5, ptr noundef %2) #10
  %6 = getelementptr inbounds nuw i8, ptr %0, i64 24
  %7 = load i64, ptr %6, align 8
  tail call void @pack_time(i64 noundef %7, ptr noundef %2) #10
  %8 = load i64, ptr %0, align 8
  tail call void @pack_time(i64 noundef %8, ptr noundef %2) #10
  %9 = getelementptr inbounds nuw i8, ptr %0, i64 8
  %10 = load i64, ptr %9, align 8
  tail call void @pack_time(i64 noundef %10, ptr noundef %2) #10
  ret void
}